target datalayout = "e-m:e-p270:32:32-p271:32:32-p272:64:64-i64:64-i128:128-f80:128-n8:16:32:64-S128"
target triple = "x86_64-pc-linux-gnu"

%struct.dtoa_context = type { [8 x ptr], ptr }
%struct.Bigint = type { ptr, i32, i32, i32, i32, [1 x i32] }

; Function Attrs: nounwind uwtable
define internal ptr @Balloc(ptr noundef %0, i32 noundef %1) #0 {
  %3 = alloca ptr, align 8
  %4 = alloca i32, align 4
  %5 = alloca i32, align 4
  %6 = alloca ptr, align 8
  store ptr %0, ptr %3, align 8, !tbaa !4
  store i32 %1, ptr %4, align 4, !tbaa !9
  call void @llvm.lifetime.start.p0(i64 4, ptr %5) #6
  call void @llvm.lifetime.start.p0(i64 8, ptr %6) #6
  %7 = load i32, ptr %4, align 4, !tbaa !9
  %8 = icmp sle i32 %7, 7
  br i1 %8, label %9, label %26

9:                                                ; preds = %2
  %10 = load ptr, ptr %3, align 8, !tbaa !4
  %11 = getelementptr inbounds nuw %struct.dtoa_context, ptr %10, i32 0, i32 0
  %12 = load i32, ptr %4, align 4, !tbaa !9
  %13 = sext i32 %12 to i64
  %14 = getelementptr inbounds [8 x ptr], ptr %11, i64 0, i64 %13
  %15 = load ptr, ptr %14, align 8, !tbaa !11
  store ptr %15, ptr %6, align 8, !tbaa !11
  %16 = icmp ne ptr %15, null
  br i1 %16, label %17, label %26

17:                                               ; preds = %9
  %18 = load ptr, ptr %6, align 8, !tbaa !11
  %19 = getelementptr inbounds nuw %struct.Bigint, ptr %18, i32 0, i32 0
  %20 = load ptr, ptr %19, align 8, !tbaa !17
  %21 = load ptr, ptr %3, align 8, !tbaa !4
  %22 = getelementptr inbounds nuw %struct.dtoa_context, ptr %21, i32 0, i32 0
  %23 = load i32, ptr %4, align 4, !tbaa !9
  %24 = sext i32 %23 to i64
  %25 = getelementptr inbounds [8 x ptr], ptr %22, i64 0, i64 %24
  store ptr %20, ptr %25, align 8, !tbaa !11
  br label %41

26:                                               ; preds = %9, %2
  %27 = load i32, ptr %4, align 4, !tbaa !9
  %28 = shl i32 1, %27
  store i32 %28, ptr %5, align 4, !tbaa !9
  %29 = load i32, ptr %5, align 4, !tbaa !9
  %30 = sub nsw i32 %29, 1
  %31 = sext i32 %30 to i64
  %32 = mul i64 %31, 4
  %33 = add i64 32, %32
  %34 = call ptr @jv_mem_alloc(i64 noundef %33)
  store ptr %34, ptr %6, align 8, !tbaa !11
  %35 = load i32, ptr %4, align 4, !tbaa !9
  %36 = load ptr, ptr %6, align 8, !tbaa !11
  %37 = getelementptr inbounds nuw %struct.Bigint, ptr %36, i32 0, i32 1
  store i32 %35, ptr %37, align 8, !tbaa !22
  %38 = load i32, ptr %5, align 4, !tbaa !9
  %39 = load ptr, ptr %6, align 8, !tbaa !11
  %40 = getelementptr inbounds nuw %struct.Bigint, ptr %39, i32 0, i32 2
  store i32 %38, ptr %40, align 4, !tbaa !58
  br label %41

41:                                               ; preds = %26, %17
  %42 = load ptr, ptr %6, align 8, !tbaa !11
  %43 = getelementptr inbounds nuw %struct.Bigint, ptr %42, i32 0, i32 4
  store i32 0, ptr %43, align 4, !tbaa !51
  %44 = load ptr, ptr %6, align 8, !tbaa !11
  %45 = getelementptr inbounds nuw %struct.Bigint, ptr %44, i32 0, i32 3
  store i32 0, ptr %45, align 8, !tbaa !52
  %46 = load ptr, ptr %6, align 8, !tbaa !11
  call void @llvm.lifetime.end.p0(i64 8, ptr %6) #6
  call void @llvm.lifetime.end.p0(i64 4, ptr %5) #6
  ret ptr %46
}

; Function Attrs: nounwind uwtable
define internal ptr @mult(ptr noundef %0, ptr noundef %1, ptr noundef %2) #0 {
  %4 = alloca ptr, align 8
  %5 = alloca ptr, align 8
  %6 = alloca ptr, align 8
  %7 = alloca ptr, align 8
  %8 = alloca i32, align 4
  %9 = alloca i32, align 4
  %10 = alloca i32, align 4
  %11 = alloca i32, align 4
  %12 = alloca ptr, align 8
  %13 = alloca ptr, align 8
  %14 = alloca ptr, align 8
  %15 = alloca ptr, align 8
  %16 = alloca ptr, align 8
  %17 = alloca ptr, align 8
  %18 = alloca ptr, align 8
  %19 = alloca i32, align 4
  %20 = alloca i64, align 8
  %21 = alloca i64, align 8
  store ptr %0, ptr %4, align 8, !tbaa !4
  store ptr %1, ptr %5, align 8, !tbaa !11
  store ptr %2, ptr %6, align 8, !tbaa !11
  call void @llvm.lifetime.start.p0(i64 8, ptr %7) #6
  call void @llvm.lifetime.start.p0(i64 4, ptr %8) #6
  call void @llvm.lifetime.start.p0(i64 4, ptr %9) #6
  call void @llvm.lifetime.start.p0(i64 4, ptr %10) #6
  call void @llvm.lifetime.start.p0(i64 4, ptr %11) #6
  call void @llvm.lifetime.start.p0(i64 8, ptr %12) #6
  call void @llvm.lifetime.start.p0(i64 8, ptr %13) #6
  call void @llvm.lifetime.start.p0(i64 8, ptr %14) #6
  call void @llvm.lifetime.start.p0(i64 8, ptr %15) #6
  call void @llvm.lifetime.start.p0(i64 8, ptr %16) #6
  call void @llvm.lifetime.start.p0(i64 8, ptr %17) #6
  call void @llvm.lifetime.start.p0(i64 8, ptr %18) #6
  call void @llvm.lifetime.start.p0(i64 4, ptr %19) #6
  call void @llvm.lifetime.start.p0(i64 8, ptr %20) #6
  call void @llvm.lifetime.start.p0(i64 8, ptr %21) #6
  %22 = load ptr, ptr %5, align 8, !tbaa !11
  %23 = getelementptr inbounds nuw %struct.Bigint, ptr %22, i32 0, i32 4
  %24 = load i32, ptr %23, align 4, !tbaa !51
  %25 = load ptr, ptr %6, align 8, !tbaa !11
  %26 = getelementptr inbounds nuw %struct.Bigint, ptr %25, i32 0, i32 4
  %27 = load i32, ptr %26, align 4, !tbaa !51
  %28 = icmp slt i32 %24, %27
  br i1 %28, label %29, label %33

29:                                               ; preds = %3
  %30 = load ptr, ptr %5, align 8, !tbaa !11
  store ptr %30, ptr %7, align 8, !tbaa !11
  %31 = load ptr, ptr %6, align 8, !tbaa !11
  store ptr %31, ptr %5, align 8, !tbaa !11
  %32 = load ptr, ptr %7, align 8, !tbaa !11
  store ptr %32, ptr %6, align 8, !tbaa !11
  br label %33

33:                                               ; preds = %29, %3
  %34 = load ptr, ptr %5, align 8, !tbaa !11
  %35 = getelementptr inbounds nuw %struct.Bigint, ptr %34, i32 0, i32 1
  %36 = load i32, ptr %35, align 8, !tbaa !22
  store i32 %36, ptr %8, align 4, !tbaa !9
  %37 = load ptr, ptr %5, align 8, !tbaa !11
  %38 = getelementptr inbounds nuw %struct.Bigint, ptr %37, i32 0, i32 4
  %39 = load i32, ptr %38, align 4, !tbaa !51
  store i32 %39, ptr %9, align 4, !tbaa !9
  %40 = load ptr, ptr %6, align 8, !tbaa !11
  %41 = getelementptr inbounds nuw %struct.Bigint, ptr %40, i32 0, i32 4
  %42 = load i32, ptr %41, align 4, !tbaa !51
  store i32 %42, ptr %10, align 4, !tbaa !9
  %43 = load i32, ptr %9, align 4, !tbaa !9
  %44 = load i32, ptr %10, align 4, !tbaa !9
  %45 = add nsw i32 %43, %44
  store i32 %45, ptr %11, align 4, !tbaa !9
  %46 = load i32, ptr %11, align 4, !tbaa !9
  %47 = load ptr, ptr %5, align 8, !tbaa !11
  %48 = getelementptr inbounds nuw %struct.Bigint, ptr %47, i32 0, i32 2
  %49 = load i32, ptr %48, align 4, !tbaa !58
  %50 = icmp sgt i32 %46, %49
  br i1 %50, label %51, label %54

51:                                               ; preds = %33
  %52 = load i32, ptr %8, align 4, !tbaa !9
  %53 = add nsw i32 %52, 1
  store i32 %53, ptr %8, align 4, !tbaa !9
  br label %54

54:                                               ; preds = %51, %33
  %55 = load ptr, ptr %4, align 8, !tbaa !4
  %56 = load i32, ptr %8, align 4, !tbaa !9
  %57 = call ptr @Balloc(ptr noundef %55, i32 noundef %56)
  store ptr %57, ptr %7, align 8, !tbaa !11
  %58 = load ptr, ptr %7, align 8, !tbaa !11
  %59 = getelementptr inbounds nuw %struct.Bigint, ptr %58, i32 0, i32 5
  %60 = getelementptr inbounds [1 x i32], ptr %59, i64 0, i64 0
  store ptr %60, ptr %12, align 8, !tbaa !60
  %61 = load ptr, ptr %12, align 8, !tbaa !60
  %62 = load i32, ptr %11, align 4, !tbaa !9
  %63 = sext i32 %62 to i64
  %64 = getelementptr inbounds i32, ptr %61, i64 %63
  store ptr %64, ptr %13, align 8, !tbaa !60
  br label %65

65:                                               ; preds = %71, %54
  %66 = load ptr, ptr %12, align 8, !tbaa !60
  %67 = load ptr, ptr %13, align 8, !tbaa !60
  %68 = icmp ult ptr %66, %67
  br i1 %68, label %69, label %74

69:                                               ; preds = %65
  %70 = load ptr, ptr %12, align 8, !tbaa !60
  store i32 0, ptr %70, align 4, !tbaa !9
  br label %71

71:                                               ; preds = %69
  %72 = load ptr, ptr %12, align 8, !tbaa !60
  %73 = getelementptr inbounds nuw i32, ptr %72, i32 1
  store ptr %73, ptr %12, align 8, !tbaa !60
  br label %65, !llvm.loop !62

74:                                               ; preds = %65
  %75 = load ptr, ptr %5, align 8, !tbaa !11
  %76 = getelementptr inbounds nuw %struct.Bigint, ptr %75, i32 0, i32 5
  %77 = getelementptr inbounds [1 x i32], ptr %76, i64 0, i64 0
  store ptr %77, ptr %13, align 8, !tbaa !60
  %78 = load ptr, ptr %13, align 8, !tbaa !60
  %79 = load i32, ptr %9, align 4, !tbaa !9
  %80 = sext i32 %79 to i64
  %81 = getelementptr inbounds i32, ptr %78, i64 %80
  store ptr %81, ptr %14, align 8, !tbaa !60
  %82 = load ptr, ptr %6, align 8, !tbaa !11
  %83 = getelementptr inbounds nuw %struct.Bigint, ptr %82, i32 0, i32 5
  %84 = getelementptr inbounds [1 x i32], ptr %83, i64 0, i64 0
  store ptr %84, ptr %15, align 8, !tbaa !60
  %85 = load ptr, ptr %15, align 8, !tbaa !60
  %86 = load i32, ptr %10, align 4, !tbaa !9
  %87 = sext i32 %86 to i64
  %88 = getelementptr inbounds i32, ptr %85, i64 %87
  store ptr %88, ptr %16, align 8, !tbaa !60
  %89 = load ptr, ptr %7, align 8, !tbaa !11
  %90 = getelementptr inbounds nuw %struct.Bigint, ptr %89, i32 0, i32 5
  %91 = getelementptr inbounds [1 x i32], ptr %90, i64 0, i64 0
  store ptr %91, ptr %18, align 8, !tbaa !60
  br label %92

92:                                               ; preds = %134, %74
  %93 = load ptr, ptr %15, align 8, !tbaa !60
  %94 = load ptr, ptr %16, align 8, !tbaa !60
  %95 = icmp ult ptr %93, %94
  br i1 %95, label %96, label %137

96:                                               ; preds = %92
  %97 = load ptr, ptr %15, align 8, !tbaa !60
  %98 = getelementptr inbounds nuw i32, ptr %97, i32 1
  store ptr %98, ptr %15, align 8, !tbaa !60
  %99 = load i32, ptr %97, align 4, !tbaa !9
  store i32 %99, ptr %19, align 4, !tbaa !9
  %100 = icmp ne i32 %99, 0
  br i1 %100, label %101, label %133

101:                                              ; preds = %96
  %102 = load ptr, ptr %13, align 8, !tbaa !60
  store ptr %102, ptr %12, align 8, !tbaa !60
  %103 = load ptr, ptr %18, align 8, !tbaa !60
  store ptr %103, ptr %17, align 8, !tbaa !60
  store i64 0, ptr %20, align 8, !tbaa !63
  br label %104

104:                                              ; preds = %125, %101
  %105 = load ptr, ptr %12, align 8, !tbaa !60
  %106 = getelementptr inbounds nuw i32, ptr %105, i32 1
  store ptr %106, ptr %12, align 8, !tbaa !60
  %107 = load i32, ptr %105, align 4, !tbaa !9
  %108 = zext i32 %107 to i64
  %109 = load i32, ptr %19, align 4, !tbaa !9
  %110 = zext i32 %109 to i64
  %111 = mul i64 %108, %110
  %112 = load ptr, ptr %17, align 8, !tbaa !60
  %113 = load i32, ptr %112, align 4, !tbaa !9
  %114 = zext i32 %113 to i64
  %115 = add i64 %111, %114
  %116 = load i64, ptr %20, align 8, !tbaa !63
  %117 = add i64 %115, %116
  store i64 %117, ptr %21, align 8, !tbaa !63
  %118 = load i64, ptr %21, align 8, !tbaa !63
  %119 = lshr i64 %118, 32
  store i64 %119, ptr %20, align 8, !tbaa !63
  %120 = load i64, ptr %21, align 8, !tbaa !63
  %121 = and i64 %120, 4294967295
  %122 = trunc i64 %121 to i32
  %123 = load ptr, ptr %17, align 8, !tbaa !60
  %124 = getelementptr inbounds nuw i32, ptr %123, i32 1
  store ptr %124, ptr %17, align 8, !tbaa !60
  store i32 %122, ptr %123, align 4, !tbaa !9
  br label %125

125:                                              ; preds = %104
  %126 = load ptr, ptr %12, align 8, !tbaa !60
  %127 = load ptr, ptr %14, align 8, !tbaa !60
  %128 = icmp ult ptr %126, %127
  br i1 %128, label %104, label %129, !llvm.loop !65

129:                                              ; preds = %125
  %130 = load i64, ptr %20, align 8, !tbaa !63
  %131 = trunc i64 %130 to i32
  %132 = load ptr, ptr %17, align 8, !tbaa !60
  store i32 %131, ptr %132, align 4, !tbaa !9
  br label %133

133:                                              ; preds = %129, %96
  br label %134

134:                                              ; preds = %133
  %135 = load ptr, ptr %18, align 8, !tbaa !60
  %136 = getelementptr inbounds nuw i32, ptr %135, i32 1
  store ptr %136, ptr %18, align 8, !tbaa !60
  br label %92, !llvm.loop !66

137:                                              ; preds = %92
  %138 = load ptr, ptr %7, align 8, !tbaa !11
  %139 = getelementptr inbounds nuw %struct.Bigint, ptr %138, i32 0, i32 5
  %140 = getelementptr inbounds [1 x i32], ptr %139, i64 0, i64 0
  store ptr %140, ptr %18, align 8, !tbaa !60
  %141 = load ptr, ptr %18, align 8, !tbaa !60
  %142 = load i32, ptr %11, align 4, !tbaa !9
  %143 = sext i32 %142 to i64
  %144 = getelementptr inbounds i32, ptr %141, i64 %143
  store ptr %144, ptr %17, align 8, !tbaa !60
  br label %145

145:                                              ; preds = %157, %137
  %146 = load i32, ptr %11, align 4, !tbaa !9
  %147 = icmp sgt i32 %146, 0
  br i1 %147, label %148, label %154

148:                                              ; preds = %145
  %149 = load ptr, ptr %17, align 8, !tbaa !60
  %150 = getelementptr inbounds i32, ptr %149, i32 -1
  store ptr %150, ptr %17, align 8, !tbaa !60
  %151 = load i32, ptr %150, align 4, !tbaa !9
  %152 = icmp ne i32 %151, 0
  %153 = xor i1 %152, true
  br label %154

154:                                              ; preds = %148, %145
  %155 = phi i1 [ false, %145 ], [ %153, %148 ]
  br i1 %155, label %156, label %160

156:                                              ; preds = %154
  br label %157

157:                                              ; preds = %156
  %158 = load i32, ptr %11, align 4, !tbaa !9
  %159 = add nsw i32 %158, -1
  store i32 %159, ptr %11, align 4, !tbaa !9
  br label %145, !llvm.loop !67

160:                                              ; preds = %154
  %161 = load i32, ptr %11, align 4, !tbaa !9
  %162 = load ptr, ptr %7, align 8, !tbaa !11
  %163 = getelementptr inbounds nuw %struct.Bigint, ptr %162, i32 0, i32 4
  store i32 %161, ptr %163, align 4, !tbaa !51
  %164 = load ptr, ptr %7, align 8, !tbaa !11
  call void @llvm.lifetime.end.p0(i64 8, ptr %21) #6
  call void @llvm.lifetime.end.p0(i64 8, ptr %20) #6
  call void @llvm.lifetime.end.p0(i64 4, ptr %19) #6
  call void @llvm.lifetime.end.p0(i64 8, ptr %18) #6
  call void @llvm.lifetime.end.p0(i64 8, ptr %17) #6
  call void @llvm.lifetime.end.p0(i64 8, ptr %16) #6
  call void @llvm.lifetime.end.p0(i64 8, ptr %15) #6
  call void @llvm.lifetime.end.p0(i64 8, ptr %14) #6
  call void @llvm.lifetime.end.p0(i64 8, ptr %13) #6
  call void @llvm.lifetime.end.p0(i64 8, ptr %12) #6
  call void @llvm.lifetime.end.p0(i64 4, ptr %11) #6
  call void @llvm.lifetime.end.p0(i64 4, ptr %10) #6
  call void @llvm.lifetime.end.p0(i64 4, ptr %9) #6
  call void @llvm.lifetime.end.p0(i64 4, ptr %8) #6
  call void @llvm.lifetime.end.p0(i64 8, ptr %7) #6
  ret ptr %164
}