; Function Attrs: nounwind uwtable
define internal fastcc ptr @mult(ptr noundef captures(none) %0, ptr noundef readonly captures(address) %1, ptr noundef readonly captures(address) %2) unnamed_addr #2 {
  %4 = getelementptr inbounds nuw i8, ptr %1, i64 20
  %5 = load i32, ptr %4, align 4, !tbaa !38
  %6 = getelementptr inbounds nuw i8, ptr %2, i64 20
  %7 = load i32, ptr %6, align 4, !tbaa !38
  %8 = icmp slt i32 %5, %7
  %spec.select = select i1 %8, ptr %1, ptr %2
  %spec.select66 = select i1 %8, ptr %2, ptr %1
  %9 = getelementptr inbounds nuw i8, ptr %spec.select66, i64 8
  %10 = load i32, ptr %9, align 8, !tbaa !13
  %11 = getelementptr inbounds nuw i8, ptr %spec.select66, i64 20
  %12 = load i32, ptr %11, align 4, !tbaa !38
  %13 = getelementptr inbounds nuw i8, ptr %spec.select, i64 20
  %14 = load i32, ptr %13, align 4, !tbaa !38
  %15 = add nsw i32 %14, %12
  %16 = getelementptr inbounds nuw i8, ptr %spec.select66, i64 12
  %17 = load i32, ptr %16, align 4, !tbaa !35
  %18 = icmp sgt i32 %15, %17
  %19 = zext i1 %18 to i32
  %.059 = add nsw i32 %10, %19
  %20 = icmp slt i32 %.059, 8
  br i1 %20, label %21, label %27

21:                                               ; preds = %3
  %22 = sext i32 %.059 to i64
  %23 = getelementptr inbounds [8 x ptr], ptr %0, i64 0, i64 %22
  %24 = load ptr, ptr %23, align 8, !tbaa !14
  %.not.i = icmp eq ptr %24, null
  br i1 %.not.i, label %27, label %25

25:                                               ; preds = %21
  %26 = load ptr, ptr %24, align 8, !tbaa !10
  store ptr %26, ptr %23, align 8, !tbaa !14
  br label %Balloc.exit

27:                                               ; preds = %21, %3
  %28 = shl nuw i32 1, %.059
  %29 = add nsw i32 %28, -1
  %30 = zext nneg i32 %29 to i64
  %31 = shl nuw nsw i64 %30, 2
  %32 = add nuw nsw i64 %31, 32
  %33 = tail call ptr @jv_mem_alloc(i64 noundef %32) #11
  %34 = getelementptr inbounds nuw i8, ptr %33, i64 8
  store i32 %.059, ptr %34, align 8, !tbaa !13
  %35 = getelementptr inbounds nuw i8, ptr %33, i64 12
  store i32 %28, ptr %35, align 4, !tbaa !35
  br label %Balloc.exit

Balloc.exit:                                      ; preds = %25, %27
  %.0.i = phi ptr [ %24, %25 ], [ %33, %27 ]
  %36 = getelementptr inbounds nuw i8, ptr %.0.i, i64 20
  store i32 0, ptr %36, align 4, !tbaa !38
  %37 = getelementptr inbounds nuw i8, ptr %.0.i, i64 16
  store i32 0, ptr %37, align 8, !tbaa !36
  %.ptr = getelementptr i8, ptr %.0.i, i64 24
  %38 = sext i32 %15 to i64
  %.idx = shl nsw i64 %38, 2
  %39 = getelementptr i8, ptr %.0.i, i64 %.idx
  %.ptr79 = getelementptr i8, ptr %39, i64 24
  %40 = icmp sgt i32 %15, 0
  br i1 %40, label %.lr.ph.preheader, label %._crit_edge

.lr.ph.preheader:                                 ; preds = %Balloc.exit
  %.0.i84 = ptrtoint ptr %.0.i to i64
  %41 = add i64 %.idx, %.0.i84
  %42 = add i64 %41, 24
  %43 = add i64 %.0.i84, 28
  %umax = tail call i64 @llvm.umax.i64(i64 %42, i64 %43)
  %44 = add i64 %umax, -25
  %45 = sub i64 %44, %.0.i84
  %46 = and i64 %45, -4
  %47 = add i64 %46, 4
  tail call void @llvm.memset.p0.i64(ptr align 4 %.ptr, i8 0, i64 %47, i1 false), !tbaa !37
  br label %._crit_edge

._crit_edge:                                      ; preds = %.lr.ph.preheader, %Balloc.exit
  %48 = getelementptr inbounds nuw i8, ptr %spec.select66, i64 24
  %49 = sext i32 %12 to i64
  %50 = getelementptr inbounds i32, ptr %48, i64 %49
  %51 = sext i32 %14 to i64
  %.idx80 = shl nsw i64 %51, 2
  %52 = getelementptr i8, ptr %spec.select, i64 %.idx80
  %.ptr82 = getelementptr i8, ptr %52, i64 24
  %53 = icmp sgt i32 %14, 0
  br i1 %53, label %.lr.ph73.preheader, label %.preheader

.lr.ph73.preheader:                               ; preds = %._crit_edge
  %.ptr81 = getelementptr inbounds nuw i8, ptr %spec.select, i64 24
  br label %.lr.ph73

.preheader:                                       ; preds = %72, %._crit_edge
  br i1 %40, label %.lr.ph76, label %.critedge

.lr.ph73:                                         ; preds = %.lr.ph73.preheader, %72
  %.05671 = phi ptr [ %73, %72 ], [ %.ptr, %.lr.ph73.preheader ]
  %.05870 = phi ptr [ %54, %72 ], [ %.ptr81, %.lr.ph73.preheader ]
  %54 = getelementptr inbounds nuw i8, ptr %.05870, i64 4
  %55 = load i32, ptr %.05870, align 4, !tbaa !37
  %.not65 = icmp eq i32 %55, 0
  br i1 %.not65, label %72, label %.preheader67

.preheader67:                                     ; preds = %.lr.ph73
  %56 = zext i32 %55 to i64
  br label %57

57:                                               ; preds = %.preheader67, %57
  %.161 = phi ptr [ %58, %57 ], [ %48, %.preheader67 ]
  %.057 = phi ptr [ %68, %57 ], [ %.05671, %.preheader67 ]
  %.054 = phi i64 [ %66, %57 ], [ 0, %.preheader67 ]
  %58 = getelementptr inbounds nuw i8, ptr %.161, i64 4
  %59 = load i32, ptr %.161, align 4, !tbaa !37
  %60 = zext i32 %59 to i64
  %61 = mul nuw i64 %60, %56
  %62 = load i32, ptr %.057, align 4, !tbaa !37
  %63 = zext i32 %62 to i64
  %64 = add nuw nsw i64 %.054, %63
  %65 = add nuw i64 %64, %61
  %66 = lshr i64 %65, 32
  %67 = trunc i64 %65 to i32
  %68 = getelementptr inbounds nuw i8, ptr %.057, i64 4
  store i32 %67, ptr %.057, align 4, !tbaa !37
  %69 = icmp ult ptr %58, %50
  br i1 %69, label %57, label %70, !llvm.loop !45

70:                                               ; preds = %57
  %71 = trunc nuw i64 %66 to i32
  store i32 %71, ptr %68, align 4, !tbaa !37
  br label %72

72:                                               ; preds = %.lr.ph73, %70
  %73 = getelementptr inbounds nuw i8, ptr %.05671, i64 4
  %74 = icmp ult ptr %54, %.ptr82
  br i1 %74, label %.lr.ph73, label %.preheader, !llvm.loop !46

.lr.ph76:                                         ; preds = %.preheader, %77
  %.175 = phi ptr [ %75, %77 ], [ %.ptr79, %.preheader ]
  %.06274 = phi i32 [ %78, %77 ], [ %15, %.preheader ]
  %75 = getelementptr inbounds i8, ptr %.175, i64 -4
  %76 = load i32, ptr %75, align 4, !tbaa !37
  %.not = icmp eq i32 %76, 0
  br i1 %.not, label %77, label %.critedge

77:                                               ; preds = %.lr.ph76
  %78 = add nsw i32 %.06274, -1
  %79 = icmp sgt i32 %.06274, 1
  br i1 %79, label %.lr.ph76, label %.critedge, !llvm.loop !47

.critedge:                                        ; preds = %.lr.ph76, %77, %.preheader
  %.062.lcssa = phi i32 [ %15, %.preheader ], [ 0, %77 ], [ %.06274, %.lr.ph76 ]
  store i32 %.062.lcssa, ptr %36, align 4, !tbaa !38
  ret ptr %.0.i
}